target datalayout = "e-m:e-p270:32:32-p271:32:32-p272:64:64-i64:64-i128:128-f80:128-n8:16:32:64-S128"
target triple = "x86_64-pc-linux-gnu"

%"class.std::__cxx11::basic_string" = type { %"struct.std::__cxx11::basic_string<char>::_Alloc_hider", i64, %union.anon }
%"struct.std::__cxx11::basic_string<char>::_Alloc_hider" = type { ptr }
%union.anon = type { i64, [8 x i8] }
%"class.boost::filesystem::file_status" = type { i32, i32 }
%"class.boost::filesystem::directory_entry" = type { %"class.boost::filesystem::path", %"class.boost::filesystem::file_status", %"class.boost::filesystem::file_status" }
%"class.boost::filesystem::path" = type { %"class.std::__cxx11::basic_string" }

; Function Attrs: mustprogress nounwind uwtable
define linkonce_odr hidden noundef i32 @_ZNK5boost10filesystem11file_status4typeEv(ptr noundef nonnull align 4 dereferenceable(8) %0) #2 comdat align 2 {
  %2 = alloca ptr, align 8
  store ptr %0, ptr %2, align 8, !tbaa !3
  %3 = load ptr, ptr %2, align 8
  %4 = getelementptr inbounds nuw %"class.boost::filesystem::file_status", ptr %3, i32 0, i32 0
  %5 = load i32, ptr %4, align 4, !tbaa !16
  ret i32 %5
}

; Function Attrs: mustprogress nounwind uwtable
define linkonce_odr hidden noundef nonnull align 4 dereferenceable(8) ptr @_ZN5boost10filesystem11file_statusaSERKS1_(ptr noundef nonnull align 4 dereferenceable(8) %0, ptr noundef nonnull align 4 dereferenceable(8) %1) #2 comdat align 2 {
  %3 = alloca ptr, align 8
  %4 = alloca ptr, align 8
  store ptr %0, ptr %3, align 8, !tbaa !3
  store ptr %1, ptr %4, align 8, !tbaa !3
  %5 = load ptr, ptr %3, align 8
  %6 = load ptr, ptr %4, align 8, !tbaa !3
  %7 = getelementptr inbounds nuw %"class.boost::filesystem::file_status", ptr %6, i32 0, i32 0
  %8 = load i32, ptr %7, align 4, !tbaa !16
  %9 = getelementptr inbounds nuw %"class.boost::filesystem::file_status", ptr %5, i32 0, i32 0
  store i32 %8, ptr %9, align 4, !tbaa !16
  %10 = load ptr, ptr %4, align 8, !tbaa !3
  %11 = getelementptr inbounds nuw %"class.boost::filesystem::file_status", ptr %10, i32 0, i32 1
  %12 = load i32, ptr %11, align 4, !tbaa !20
  %13 = getelementptr inbounds nuw %"class.boost::filesystem::file_status", ptr %5, i32 0, i32 1
  store i32 %12, ptr %13, align 4, !tbaa !20
  ret ptr %5
}

; Function Attrs: inlinehint mustprogress nounwind uwtable
define linkonce_odr hidden noundef zeroext i1 @_ZN5boost10filesystem10is_symlinkENS0_11file_statusE(ptr noundef %0) #1 comdat {
  %2 = alloca ptr, align 8
  store ptr %0, ptr %2, align 8, !tbaa !3
  %3 = call noundef i32 @_ZNK5boost10filesystem11file_status4typeEv(ptr noundef nonnull align 4 dereferenceable(8) %0) #23
  %4 = icmp eq i32 %3, 4
  ret i1 %4
}

; Function Attrs: mustprogress nounwind uwtable
define linkonce_odr hidden void @_ZN5boost10filesystem11file_statusC2ERKS1_(ptr noundef nonnull align 4 dereferenceable(8) %0, ptr noundef nonnull align 4 dereferenceable(8) %1) unnamed_addr #2 comdat align 2 {
  %3 = alloca ptr, align 8
  %4 = alloca ptr, align 8
  store ptr %0, ptr %3, align 8, !tbaa !3
  store ptr %1, ptr %4, align 8, !tbaa !3
  %5 = load ptr, ptr %3, align 8
  %6 = getelementptr inbounds nuw %"class.boost::filesystem::file_status", ptr %5, i32 0, i32 0
  %7 = load ptr, ptr %4, align 8, !tbaa !3
  %8 = getelementptr inbounds nuw %"class.boost::filesystem::file_status", ptr %7, i32 0, i32 0
  %9 = load i32, ptr %8, align 4, !tbaa !16
  store i32 %9, ptr %6, align 4, !tbaa !16
  %10 = getelementptr inbounds nuw %"class.boost::filesystem::file_status", ptr %5, i32 0, i32 1
  %11 = load ptr, ptr %4, align 8, !tbaa !3
  %12 = getelementptr inbounds nuw %"class.boost::filesystem::file_status", ptr %11, i32 0, i32 1
  %13 = load i32, ptr %12, align 4, !tbaa !20
  store i32 %13, ptr %10, align 4, !tbaa !20
  ret void
}

; Function Attrs: mustprogress nounwind uwtable
define linkonce_odr hidden noundef nonnull align 4 dereferenceable(8) ptr @_ZN5boost10filesystem11file_statusaSEOS1_(ptr noundef nonnull align 4 dereferenceable(8) %0, ptr noundef nonnull align 4 dereferenceable(8) %1) #2 comdat align 2 {
  %3 = alloca ptr, align 8
  %4 = alloca ptr, align 8
  store ptr %0, ptr %3, align 8, !tbaa !3
  store ptr %1, ptr %4, align 8, !tbaa !3
  %5 = load ptr, ptr %3, align 8
  %6 = load ptr, ptr %4, align 8, !tbaa !3
  %7 = getelementptr inbounds nuw %"class.boost::filesystem::file_status", ptr %6, i32 0, i32 0
  %8 = load i32, ptr %7, align 4, !tbaa !16
  %9 = getelementptr inbounds nuw %"class.boost::filesystem::file_status", ptr %5, i32 0, i32 0
  store i32 %8, ptr %9, align 4, !tbaa !16
  %10 = load ptr, ptr %4, align 8, !tbaa !3
  %11 = getelementptr inbounds nuw %"class.boost::filesystem::file_status", ptr %10, i32 0, i32 1
  %12 = load i32, ptr %11, align 4, !tbaa !20
  %13 = getelementptr inbounds nuw %"class.boost::filesystem::file_status", ptr %5, i32 0, i32 1
  store i32 %12, ptr %13, align 4, !tbaa !20
  ret ptr %5
}

; Function Attrs: mustprogress nounwind uwtable
define linkonce_odr hidden void @_ZN5boost10filesystem11file_statusC2Ev(ptr noundef nonnull align 4 dereferenceable(8) %0) unnamed_addr #2 comdat align 2 {
  %2 = alloca ptr, align 8
  store ptr %0, ptr %2, align 8, !tbaa !3
  %3 = load ptr, ptr %2, align 8
  %4 = getelementptr inbounds nuw %"class.boost::filesystem::file_status", ptr %3, i32 0, i32 0
  store i32 0, ptr %4, align 4, !tbaa !16
  %5 = getelementptr inbounds nuw %"class.boost::filesystem::file_status", ptr %3, i32 0, i32 1
  store i32 65535, ptr %5, align 4, !tbaa !20
  ret void
}

; Function Attrs: mustprogress uwtable
define void @_ZNK5boost10filesystem15directory_entry12refresh_implEPNS_6system10error_codeE(ptr noundef nonnull align 8 dereferenceable(48) %0, ptr noundef %1) #5 align 2 {
  %3 = alloca ptr, align 8
  %4 = alloca ptr, align 8
  %5 = alloca %"class.boost::filesystem::file_status", align 4
  %6 = alloca %"class.boost::filesystem::file_status", align 4
  %7 = alloca %"class.boost::filesystem::file_status", align 4
  %8 = alloca %"class.boost::filesystem::file_status", align 4
  %9 = alloca %"class.boost::filesystem::file_status", align 4
  store ptr %0, ptr %3, align 8, !tbaa !3
  store ptr %1, ptr %4, align 8, !tbaa !3
  %10 = load ptr, ptr %3, align 8
  call void @llvm.lifetime.start.p0(i64 8, ptr %5) #23
  call void @_ZN5boost10filesystem11file_statusC2Ev(ptr noundef nonnull align 4 dereferenceable(8) %5) #23
  %11 = getelementptr inbounds nuw %"class.boost::filesystem::directory_entry", ptr %10, i32 0, i32 1
  %12 = call noundef nonnull align 4 dereferenceable(8) ptr @_ZN5boost10filesystem11file_statusaSEOS1_(ptr noundef nonnull align 4 dereferenceable(8) %11, ptr noundef nonnull align 4 dereferenceable(8) %5) #23
  call void @llvm.lifetime.end.p0(i64 8, ptr %5) #23
  call void @llvm.lifetime.start.p0(i64 8, ptr %6) #23
  call void @_ZN5boost10filesystem11file_statusC2Ev(ptr noundef nonnull align 4 dereferenceable(8) %6) #23
  %13 = getelementptr inbounds nuw %"class.boost::filesystem::directory_entry", ptr %10, i32 0, i32 2
  %14 = call noundef nonnull align 4 dereferenceable(8) ptr @_ZN5boost10filesystem11file_statusaSEOS1_(ptr noundef nonnull align 4 dereferenceable(8) %13, ptr noundef nonnull align 4 dereferenceable(8) %6) #23
  call void @llvm.lifetime.end.p0(i64 8, ptr %6) #23
  call void @llvm.lifetime.start.p0(i64 8, ptr %7) #23
  %15 = getelementptr inbounds nuw %"class.boost::filesystem::directory_entry", ptr %10, i32 0, i32 0
  %16 = load ptr, ptr %4, align 8, !tbaa !3
  call void @_ZN5boost10filesystem6detail14symlink_statusERKNS0_4pathEPNS_6system10error_codeE(ptr dead_on_unwind writable sret(%"class.boost::filesystem::file_status") align 4 %7, ptr noundef nonnull align 8 dereferenceable(32) %15, ptr noundef %16)
  %17 = getelementptr inbounds nuw %"class.boost::filesystem::directory_entry", ptr %10, i32 0, i32 2
  %18 = call noundef nonnull align 4 dereferenceable(8) ptr @_ZN5boost10filesystem11file_statusaSEOS1_(ptr noundef nonnull align 4 dereferenceable(8) %17, ptr noundef nonnull align 4 dereferenceable(8) %7) #23
  call void @llvm.lifetime.end.p0(i64 8, ptr %7) #23
  %19 = getelementptr inbounds nuw %"class.boost::filesystem::directory_entry", ptr %10, i32 0, i32 2
  call void @_ZN5boost10filesystem11file_statusC2ERKS1_(ptr noundef nonnull align 4 dereferenceable(8) %8, ptr noundef nonnull align 4 dereferenceable(8) %19) #23
  %20 = call noundef zeroext i1 @_ZN5boost10filesystem10is_symlinkENS0_11file_statusE(ptr noundef %8) #23
  br i1 %20, label %25, label %21

21:                                               ; preds = %2
  %22 = getelementptr inbounds nuw %"class.boost::filesystem::directory_entry", ptr %10, i32 0, i32 2
  %23 = getelementptr inbounds nuw %"class.boost::filesystem::directory_entry", ptr %10, i32 0, i32 1
  %24 = call noundef nonnull align 4 dereferenceable(8) ptr @_ZN5boost10filesystem11file_statusaSERKS1_(ptr noundef nonnull align 4 dereferenceable(8) %23, ptr noundef nonnull align 4 dereferenceable(8) %22) #23
  br label %30

25:                                               ; preds = %2
  call void @llvm.lifetime.start.p0(i64 8, ptr %9) #23
  %26 = getelementptr inbounds nuw %"class.boost::filesystem::directory_entry", ptr %10, i32 0, i32 0
  %27 = load ptr, ptr %4, align 8, !tbaa !3
  call void @_ZN5boost10filesystem6detail6statusERKNS0_4pathEPNS_6system10error_codeE(ptr dead_on_unwind writable sret(%"class.boost::filesystem::file_status") align 4 %9, ptr noundef nonnull align 8 dereferenceable(32) %26, ptr noundef %27)
  %28 = getelementptr inbounds nuw %"class.boost::filesystem::directory_entry", ptr %10, i32 0, i32 1
  %29 = call noundef nonnull align 4 dereferenceable(8) ptr @_ZN5boost10filesystem11file_statusaSEOS1_(ptr noundef nonnull align 4 dereferenceable(8) %28, ptr noundef nonnull align 4 dereferenceable(8) %9) #23
  call void @llvm.lifetime.end.p0(i64 8, ptr %9) #23
  br label %30

30:                                               ; preds = %25, %21
  ret void
}