; Function Attrs: mustprogress uwtable
define void @_ZNK5boost10filesystem15directory_entry12refresh_implEPNS_6system10error_codeE(ptr noundef nonnull align 8 dereferenceable(48) %0, ptr noundef %1) local_unnamed_addr #5 align 2 {
  %3 = alloca %"class.boost::filesystem::file_status", align 4
  %4 = alloca %"class.boost::filesystem::file_status", align 4
  %5 = getelementptr inbounds nuw i8, ptr %0, i64 32
  store i32 0, ptr %5, align 8, !tbaa !17
  %6 = getelementptr inbounds nuw i8, ptr %0, i64 36
  store i32 65535, ptr %6, align 4, !tbaa !21
  %7 = getelementptr inbounds nuw i8, ptr %0, i64 40
  store i32 0, ptr %7, align 8, !tbaa !17
  %8 = getelementptr inbounds nuw i8, ptr %0, i64 44
  store i32 65535, ptr %8, align 4, !tbaa !21
  call void @llvm.lifetime.start.p0(i64 8, ptr nonnull %3) #30
  call void @_ZN5boost10filesystem6detail14symlink_statusERKNS0_4pathEPNS_6system10error_codeE(ptr dead_on_unwind nonnull writable sret(%"class.boost::filesystem::file_status") align 4 %3, ptr noundef nonnull align 8 dereferenceable(32) %0, ptr noundef %1)
  %9 = load i32, ptr %3, align 4, !tbaa !17
  store i32 %9, ptr %7, align 8, !tbaa !17
  %10 = getelementptr inbounds nuw i8, ptr %3, i64 4
  %11 = load i32, ptr %10, align 4, !tbaa !21
  store i32 %11, ptr %8, align 4, !tbaa !21
  call void @llvm.lifetime.end.p0(i64 8, ptr nonnull %3) #30
  %12 = icmp eq i32 %9, 4
  br i1 %12, label %13, label %17

13:                                               ; preds = %2
  call void @llvm.lifetime.start.p0(i64 8, ptr nonnull %4) #30
  call void @_ZN5boost10filesystem6detail6statusERKNS0_4pathEPNS_6system10error_codeE(ptr dead_on_unwind nonnull writable sret(%"class.boost::filesystem::file_status") align 4 %4, ptr noundef nonnull align 8 dereferenceable(32) %0, ptr noundef %1)
  %14 = load i32, ptr %4, align 4, !tbaa !17
  %15 = getelementptr inbounds nuw i8, ptr %4, i64 4
  %16 = load i32, ptr %15, align 4, !tbaa !21
  call void @llvm.lifetime.end.p0(i64 8, ptr nonnull %4) #30
  br label %17

17:                                               ; preds = %2, %13
  %.sink6 = phi i32 [ %14, %13 ], [ %9, %2 ]
  %.sink = phi i32 [ %16, %13 ], [ %11, %2 ]
  store i32 %.sink6, ptr %5, align 8
  store i32 %.sink, ptr %6, align 4
  ret void
}